target datalayout = "e-m:e-p270:32:32-p271:32:32-p272:64:64-i64:64-i128:128-f80:128-n8:16:32:64-S128"
target triple = "x86_64-pc-linux-gnu"

%struct.PslCache = type { ptr, i64, i8 }
%struct.Curl_easy = type { i32, i64, i64, ptr, %struct.Curl_llist_node, %struct.Curl_llist_node, i32, i32, %struct.Curl_message, %struct.easy_pollset, %struct.Names, ptr, ptr, ptr, ptr, %struct.SingleRequest, %struct.UserDefined, ptr, ptr, ptr, %struct.Progress, %struct.UrlState, ptr, %struct.PureInfo, %struct.curl_tlssessioninfo }
%struct.Curl_llist_node = type { ptr, ptr, ptr, ptr }
%struct.Curl_message = type { %struct.Curl_llist_node, %struct.CURLMsg }
%struct.CURLMsg = type { i32, ptr, %union.anon }
%union.anon = type { ptr }
%struct.easy_pollset = type { [5 x i32], i32, [5 x i8] }
%struct.Names = type { ptr, i32 }
%struct.SingleRequest = type <{ i64, i64, i64, i64, %struct.curltime, i32, i32, i32, i32, i64, i32, i32, i8, i8, [2 x i8], i32, ptr, ptr, %struct.bufq, i64, i64, ptr, ptr, %union.anon.0, ptr, i8, i32, [3 x i8] }>
%struct.curltime = type { i64, i32 }
%struct.bufq = type { ptr, ptr, ptr, ptr, i64, i64, i64, i32 }
%union.anon.0 = type { ptr }
%struct.UserDefined = type <{ ptr, ptr, ptr, ptr, ptr, ptr, i64, i64, i64, ptr, ptr, i64, ptr, ptr, ptr, ptr, ptr, ptr, ptr, ptr, ptr, ptr, ptr, ptr, ptr, ptr, ptr, ptr, ptr, ptr, ptr, ptr, ptr, ptr, ptr, i64, i64, i64, i64, i64, i64, i64, i64, i64, ptr, ptr, %struct.curl_mimepart, ptr, ptr, ptr, i64, %struct.ssl_config_data, %struct.ssl_config_data, ptr, i16, i8, i8, %struct.ssl_general_config, i32, i32, i32, [4 x i8], ptr, ptr, i64, i32, i8, i8, i8, i8, ptr, ptr, ptr, i32, [4 x i8], [74 x ptr], [8 x ptr], i32, i32, i32, [4 x i8], ptr, i32, [4 x i8], ptr, ptr, ptr, ptr, ptr, i32, i32, i32, i32, i32, i32, i32, i32, i64, ptr, ptr, i64, ptr, i64, ptr, ptr, ptr, ptr, i32, i16, i16, i16, i8, i8, i8, i8, i8, i8, i8, i8, i64, [6 x i8] }>
%struct.curl_mimepart = type { ptr, ptr, i32, i32, ptr, ptr, ptr, ptr, ptr, ptr, ptr, ptr, ptr, ptr, ptr, i64, %struct.mime_state, ptr, %struct.mime_encoder_state, i64 }
%struct.mime_state = type { i32, ptr, i64 }
%struct.mime_encoder_state = type { i64, i64, i64, [256 x i8] }
%struct.ssl_config_data = type { %struct.ssl_primary_config, i64, ptr, ptr, ptr, ptr, ptr, ptr, ptr, i16 }
%struct.ssl_primary_config = type { ptr, ptr, ptr, ptr, ptr, ptr, ptr, ptr, ptr, ptr, ptr, ptr, ptr, ptr, i8, i32, i8, i8 }
%struct.ssl_general_config = type { i32 }
%struct.Progress = type { i64, %struct.pgrs_dir, %struct.pgrs_dir, i64, i64, i32, i32, i64, i64, i64, i64, i64, i64, i64, i64, i64, %struct.curltime, %struct.curltime, %struct.curltime, %struct.curltime, %struct.curltime, [6 x i64], [6 x %struct.curltime], i32, i8 }
%struct.pgrs_dir = type { i64, i64, i64, %struct.pgrs_measure }
%struct.pgrs_measure = type { %struct.curltime, i64 }
%struct.UrlState = type { %struct.curltime, i64, i64, %struct.dynbuf, ptr, i64, ptr, i32, i32, i32, ptr, i32, i64, i32, ptr, %struct.digestdata, %struct.digestdata, %struct.auth, %struct.auth, %struct.Curl_async, ptr, i8, %struct.curltime, %struct.Curl_tree, %struct.Curl_llist, [15 x %struct.time_node], ptr, ptr, i64, i64, i64, i64, [32 x i8], i64, ptr, ptr, ptr, %struct.urlpieces, ptr, ptr, ptr, ptr, ptr, i64, %struct.dynbuf, %struct.Curl_llist, [2 x %struct.curl_header], ptr, i32, ptr, ptr, %struct.store_netrc, %struct.dynamically_allocated_data, i8, i8, i8, i8, i32 }
%struct.digestdata = type { ptr, ptr, ptr, ptr, ptr, ptr, i32, i8, i8 }
%struct.auth = type { i64, i64, i64, i8 }
%struct.Curl_async = type { ptr, ptr, ptr, ptr, i32, i32, i8 }
%struct.Curl_tree = type { ptr, ptr, ptr, ptr, %struct.curltime, ptr }
%struct.time_node = type { %struct.Curl_llist_node, %struct.curltime, i32 }
%struct.urlpieces = type { ptr, ptr, ptr, ptr, ptr, ptr, ptr, ptr }
%struct.dynbuf = type { ptr, i64, i64, i64 }
%struct.Curl_llist = type { ptr, ptr, ptr, i64 }
%struct.curl_header = type { ptr, ptr, i64, i64, i32, ptr }
%struct.store_netrc = type { %struct.dynbuf, ptr, i8 }
%struct.dynamically_allocated_data = type { ptr, ptr, ptr, ptr, ptr, ptr, ptr, ptr, ptr, ptr, ptr, ptr, ptr, ptr }
%struct.PureInfo = type { i32, i32, i32, i64, i64, i64, i64, i64, i64, i64, ptr, ptr, i64, i32, %struct.ip_quadruple, i32, ptr, i32, %struct.curl_certinfo, i32, i8 }
%struct.ip_quadruple = type { [46 x i8], [46 x i8], i32, i32 }
%struct.curl_certinfo = type { i32, ptr }
%struct.curl_tlssessioninfo = type { i32, ptr }

; Function Attrs: nounwind uwtable
define hidden void @Curl_psl_destroy(ptr noundef %0) #0 {
  %2 = alloca ptr, align 8
  store ptr %0, ptr %2, align 8, !tbaa !3
  %3 = load ptr, ptr %2, align 8, !tbaa !3
  %4 = getelementptr inbounds nuw %struct.PslCache, ptr %3, i32 0, i32 0
  %5 = load ptr, ptr %4, align 8, !tbaa !8
  %6 = icmp ne ptr %5, null
  br i1 %6, label %7, label %21

7:                                                ; preds = %1
  %8 = load ptr, ptr %2, align 8, !tbaa !3
  %9 = getelementptr inbounds nuw %struct.PslCache, ptr %8, i32 0, i32 2
  %10 = load i8, ptr %9, align 8, !tbaa !13, !range !14, !noundef !15
  %11 = trunc i8 %10 to i1
  br i1 %11, label %12, label %16

12:                                               ; preds = %7
  %13 = load ptr, ptr %2, align 8, !tbaa !3
  %14 = getelementptr inbounds nuw %struct.PslCache, ptr %13, i32 0, i32 0
  %15 = load ptr, ptr %14, align 8, !tbaa !8
  call void @psl_free(ptr noundef %15)
  br label %16

16:                                               ; preds = %12, %7
  %17 = load ptr, ptr %2, align 8, !tbaa !3
  %18 = getelementptr inbounds nuw %struct.PslCache, ptr %17, i32 0, i32 0
  store ptr null, ptr %18, align 8, !tbaa !8
  %19 = load ptr, ptr %2, align 8, !tbaa !3
  %20 = getelementptr inbounds nuw %struct.PslCache, ptr %19, i32 0, i32 2
  store i8 0, ptr %20, align 8, !tbaa !13
  br label %21

21:                                               ; preds = %16, %1
  ret void
}

; Function Attrs: nounwind uwtable
define internal i64 @now_seconds() #0 {
  %1 = alloca %struct.curltime, align 8
  call void @llvm.lifetime.start.p0(i64 16, ptr %1) #3
  %2 = call { i64, i32 } @Curl_now()
  %3 = getelementptr inbounds nuw { i64, i32 }, ptr %1, i32 0, i32 0
  %4 = extractvalue { i64, i32 } %2, 0
  store i64 %4, ptr %3, align 8
  %5 = getelementptr inbounds nuw { i64, i32 }, ptr %1, i32 0, i32 1
  %6 = extractvalue { i64, i32 } %2, 1
  store i32 %6, ptr %5, align 8
  %7 = getelementptr inbounds nuw %struct.curltime, ptr %1, i32 0, i32 0
  %8 = load i64, ptr %7, align 8, !tbaa !89
  call void @llvm.lifetime.end.p0(i64 16, ptr %1) #3
  ret i64 %8
}

; Function Attrs: nounwind uwtable
define hidden ptr @Curl_psl_use(ptr noundef %0) #0 {
  %2 = alloca ptr, align 8
  %3 = alloca ptr, align 8
  %4 = alloca ptr, align 8
  %5 = alloca ptr, align 8
  %6 = alloca i64, align 8
  %7 = alloca i32, align 4
  %8 = alloca i8, align 1
  %9 = alloca i64, align 8
  store ptr %0, ptr %3, align 8, !tbaa !16
  call void @llvm.lifetime.start.p0(i64 8, ptr %4) #3
  %10 = load ptr, ptr %3, align 8, !tbaa !16
  %11 = getelementptr inbounds nuw %struct.Curl_easy, ptr %10, i32 0, i32 14
  %12 = load ptr, ptr %11, align 8, !tbaa !18
  store ptr %12, ptr %4, align 8, !tbaa !3
  call void @llvm.lifetime.start.p0(i64 8, ptr %5) #3
  call void @llvm.lifetime.start.p0(i64 8, ptr %6) #3
  %13 = load ptr, ptr %4, align 8, !tbaa !3
  %14 = icmp ne ptr %13, null
  br i1 %14, label %16, label %15

15:                                               ; preds = %1
  store ptr null, ptr %2, align 8
  store i32 1, ptr %7, align 4
  br label %101

16:                                               ; preds = %1
  %17 = load ptr, ptr %3, align 8, !tbaa !16
  %18 = call i32 @Curl_share_lock(ptr noundef %17, i32 noundef 6, i32 noundef 1)
  %19 = call i64 @now_seconds()
  store i64 %19, ptr %6, align 8, !tbaa !85
  %20 = load ptr, ptr %4, align 8, !tbaa !3
  %21 = getelementptr inbounds nuw %struct.PslCache, ptr %20, i32 0, i32 0
  %22 = load ptr, ptr %21, align 8, !tbaa !8
  %23 = icmp ne ptr %22, null
  br i1 %23, label %24, label %30

24:                                               ; preds = %16
  %25 = load ptr, ptr %4, align 8, !tbaa !3
  %26 = getelementptr inbounds nuw %struct.PslCache, ptr %25, i32 0, i32 1
  %27 = load i64, ptr %26, align 8, !tbaa !86
  %28 = load i64, ptr %6, align 8, !tbaa !85
  %29 = icmp sle i64 %27, %28
  br i1 %29, label %30, label %90

30:                                               ; preds = %24, %16
  %31 = load ptr, ptr %3, align 8, !tbaa !16
  %32 = call i32 @Curl_share_unlock(ptr noundef %31, i32 noundef 6)
  %33 = load ptr, ptr %3, align 8, !tbaa !16
  %34 = call i32 @Curl_share_lock(ptr noundef %33, i32 noundef 6, i32 noundef 2)
  %35 = call i64 @now_seconds()
  store i64 %35, ptr %6, align 8, !tbaa !85
  %36 = load ptr, ptr %4, align 8, !tbaa !3
  %37 = getelementptr inbounds nuw %struct.PslCache, ptr %36, i32 0, i32 0
  %38 = load ptr, ptr %37, align 8, !tbaa !8
  %39 = icmp ne ptr %38, null
  br i1 %39, label %40, label %46

40:                                               ; preds = %30
  %41 = load ptr, ptr %4, align 8, !tbaa !3
  %42 = getelementptr inbounds nuw %struct.PslCache, ptr %41, i32 0, i32 1
  %43 = load i64, ptr %42, align 8, !tbaa !86
  %44 = load i64, ptr %6, align 8, !tbaa !85
  %45 = icmp sle i64 %43, %44
  br i1 %45, label %46, label %85

46:                                               ; preds = %40, %30
  call void @llvm.lifetime.start.p0(i64 1, ptr %8) #3
  store i8 0, ptr %8, align 1, !tbaa !87
  call void @llvm.lifetime.start.p0(i64 8, ptr %9) #3
  store i64 9223372036854775807, ptr %9, align 8, !tbaa !85
  %47 = call ptr @psl_latest(ptr noundef null)
  store ptr %47, ptr %5, align 8, !tbaa !88
  %48 = load ptr, ptr %5, align 8, !tbaa !88
  %49 = icmp ne ptr %48, null
  %50 = zext i1 %49 to i8
  store i8 %50, ptr %8, align 1, !tbaa !87
  %51 = load i64, ptr %6, align 8, !tbaa !85
  %52 = icmp slt i64 %51, 9223372036854516607
  br i1 %52, label %53, label %56

53:                                               ; preds = %46
  %54 = load i64, ptr %6, align 8, !tbaa !85
  %55 = add nsw i64 %54, 259200
  br label %57

56:                                               ; preds = %46
  br label %57

57:                                               ; preds = %56, %53
  %58 = phi i64 [ %55, %53 ], [ 9223372036854775807, %56 ]
  store i64 %58, ptr %9, align 8, !tbaa !85
  %59 = load ptr, ptr %5, align 8, !tbaa !88
  %60 = icmp ne ptr %59, null
  br i1 %60, label %68, label %61

61:                                               ; preds = %57
  %62 = load ptr, ptr %4, align 8, !tbaa !3
  %63 = getelementptr inbounds nuw %struct.PslCache, ptr %62, i32 0, i32 2
  %64 = load i8, ptr %63, align 8, !tbaa !13, !range !14, !noundef !15
  %65 = trunc i8 %64 to i1
  br i1 %65, label %68, label %66

66:                                               ; preds = %61
  %67 = call ptr @psl_builtin()
  store ptr %67, ptr %5, align 8, !tbaa !88
  br label %68

68:                                               ; preds = %66, %61, %57
  %69 = load ptr, ptr %5, align 8, !tbaa !88
  %70 = icmp ne ptr %69, null
  br i1 %70, label %71, label %84

71:                                               ; preds = %68
  %72 = load ptr, ptr %4, align 8, !tbaa !3
  call void @Curl_psl_destroy(ptr noundef %72)
  %73 = load ptr, ptr %5, align 8, !tbaa !88
  %74 = load ptr, ptr %4, align 8, !tbaa !3
  %75 = getelementptr inbounds nuw %struct.PslCache, ptr %74, i32 0, i32 0
  store ptr %73, ptr %75, align 8, !tbaa !8
  %76 = load i8, ptr %8, align 1, !tbaa !87, !range !14, !noundef !15
  %77 = trunc i8 %76 to i1
  %78 = load ptr, ptr %4, align 8, !tbaa !3
  %79 = getelementptr inbounds nuw %struct.PslCache, ptr %78, i32 0, i32 2
  %80 = zext i1 %77 to i8
  store i8 %80, ptr %79, align 8, !tbaa !13
  %81 = load i64, ptr %9, align 8, !tbaa !85
  %82 = load ptr, ptr %4, align 8, !tbaa !3
  %83 = getelementptr inbounds nuw %struct.PslCache, ptr %82, i32 0, i32 1
  store i64 %81, ptr %83, align 8, !tbaa !86
  br label %84

84:                                               ; preds = %71, %68
  call void @llvm.lifetime.end.p0(i64 8, ptr %9) #3
  call void @llvm.lifetime.end.p0(i64 1, ptr %8) #3
  br label %85

85:                                               ; preds = %84, %40
  %86 = load ptr, ptr %3, align 8, !tbaa !16
  %87 = call i32 @Curl_share_unlock(ptr noundef %86, i32 noundef 6)
  %88 = load ptr, ptr %3, align 8, !tbaa !16
  %89 = call i32 @Curl_share_lock(ptr noundef %88, i32 noundef 6, i32 noundef 1)
  br label %90

90:                                               ; preds = %85, %24
  %91 = load ptr, ptr %4, align 8, !tbaa !3
  %92 = getelementptr inbounds nuw %struct.PslCache, ptr %91, i32 0, i32 0
  %93 = load ptr, ptr %92, align 8, !tbaa !8
  store ptr %93, ptr %5, align 8, !tbaa !88
  %94 = load ptr, ptr %5, align 8, !tbaa !88
  %95 = icmp ne ptr %94, null
  br i1 %95, label %99, label %96

96:                                               ; preds = %90
  %97 = load ptr, ptr %3, align 8, !tbaa !16
  %98 = call i32 @Curl_share_unlock(ptr noundef %97, i32 noundef 6)
  br label %99

99:                                               ; preds = %96, %90
  %100 = load ptr, ptr %5, align 8, !tbaa !88
  store ptr %100, ptr %2, align 8
  store i32 1, ptr %7, align 4
  br label %101

101:                                              ; preds = %99, %15
  call void @llvm.lifetime.end.p0(i64 8, ptr %6) #3
  call void @llvm.lifetime.end.p0(i64 8, ptr %5) #3
  call void @llvm.lifetime.end.p0(i64 8, ptr %4) #3
  %102 = load ptr, ptr %2, align 8
  ret ptr %102
}