; Function Attrs: nounwind uwtable
define hidden ptr @Curl_psl_use(ptr noundef %0) local_unnamed_addr #0 {
  %2 = getelementptr inbounds nuw i8, ptr %0, i64 232
  %3 = load ptr, ptr %2, align 8, !tbaa !14
  %.not = icmp eq ptr %3, null
  br i1 %.not, label %.thread45, label %4

4:                                                ; preds = %1
  %5 = tail call i32 @Curl_share_lock(ptr noundef nonnull %0, i32 noundef 6, i32 noundef 1) #3
  %6 = tail call { i64, i32 } @Curl_now() #3
  %7 = load ptr, ptr %3, align 8, !tbaa !3
  %.not33 = icmp eq ptr %7, null
  br i1 %.not33, label %12, label %8

8:                                                ; preds = %4
  %9 = extractvalue { i64, i32 } %6, 0
  %10 = getelementptr inbounds nuw i8, ptr %3, i64 8
  %11 = load i64, ptr %10, align 8, !tbaa !82
  %.not34 = icmp sgt i64 %11, %9
  br i1 %.not34, label %.thread45, label %12

12:                                               ; preds = %8, %4
  %13 = tail call i32 @Curl_share_unlock(ptr noundef nonnull %0, i32 noundef 6) #3
  %14 = tail call i32 @Curl_share_lock(ptr noundef nonnull %0, i32 noundef 6, i32 noundef 2) #3
  %15 = tail call { i64, i32 } @Curl_now() #3
  %16 = extractvalue { i64, i32 } %15, 0
  %17 = load ptr, ptr %3, align 8, !tbaa !3
  %.not35 = icmp eq ptr %17, null
  br i1 %.not35, label %21, label %18

18:                                               ; preds = %12
  %19 = getelementptr inbounds nuw i8, ptr %3, i64 8
  %20 = load i64, ptr %19, align 8, !tbaa !82
  %.not36 = icmp sgt i64 %20, %16
  br i1 %.not36, label %41, label %21

21:                                               ; preds = %18, %12
  %22 = tail call ptr @psl_latest(ptr noundef null) #3
  %23 = icmp ne ptr %22, null
  %24 = zext i1 %23 to i8
  %25 = tail call i64 @llvm.smin.i64(i64 %16, i64 9223372036854516607)
  %26 = add nsw i64 %25, 259200
  br i1 %23, label %.thread41, label %27

27:                                               ; preds = %21
  %28 = getelementptr inbounds nuw i8, ptr %3, i64 16
  %29 = load i8, ptr %28, align 8, !tbaa !11, !range !12, !noundef !13
  %30 = trunc nuw i8 %29 to i1
  br i1 %30, label %41, label %31

31:                                               ; preds = %27
  %32 = tail call ptr @psl_builtin() #3
  %.not37 = icmp eq ptr %32, null
  br i1 %.not37, label %41, label %.thread41

.thread41:                                        ; preds = %21, %31
  %.044 = phi ptr [ %32, %31 ], [ %22, %21 ]
  %33 = load ptr, ptr %3, align 8, !tbaa !3
  %.not.i = icmp eq ptr %33, null
  br i1 %.not.i, label %Curl_psl_destroy.exit, label %34

34:                                               ; preds = %.thread41
  %35 = getelementptr inbounds nuw i8, ptr %3, i64 16
  %36 = load i8, ptr %35, align 8, !tbaa !11, !range !12, !noundef !13
  %37 = trunc nuw i8 %36 to i1
  br i1 %37, label %38, label %Curl_psl_destroy.exit

38:                                               ; preds = %34
  tail call void @psl_free(ptr noundef nonnull %33) #3
  br label %Curl_psl_destroy.exit

Curl_psl_destroy.exit:                            ; preds = %34, %38, %.thread41
  store ptr %.044, ptr %3, align 8, !tbaa !3
  %39 = getelementptr inbounds nuw i8, ptr %3, i64 16
  store i8 %24, ptr %39, align 8, !tbaa !11
  %40 = getelementptr inbounds nuw i8, ptr %3, i64 8
  store i64 %26, ptr %40, align 8, !tbaa !82
  br label %41

41:                                               ; preds = %18, %Curl_psl_destroy.exit, %31, %27
  %42 = tail call i32 @Curl_share_unlock(ptr noundef nonnull %0, i32 noundef 6) #3
  %43 = tail call i32 @Curl_share_lock(ptr noundef nonnull %0, i32 noundef 6, i32 noundef 1) #3
  %.pre = load ptr, ptr %3, align 8, !tbaa !3
  %.not38 = icmp eq ptr %.pre, null
  br i1 %.not38, label %44, label %.thread45

44:                                               ; preds = %41
  %45 = tail call i32 @Curl_share_unlock(ptr noundef nonnull %0, i32 noundef 6) #3
  br label %.thread45

.thread45:                                        ; preds = %8, %41, %44, %1
  %.030 = phi ptr [ null, %1 ], [ null, %44 ], [ %.pre, %41 ], [ %7, %8 ]
  ret ptr %.030
}